target datalayout = "e-m:e-p270:32:32-p271:32:32-p272:64:64-i64:64-i128:128-f80:128-n8:16:32:64-S128"
target triple = "x86_64-pc-linux-gnu"

%"struct.vcpkg::StringView" = type { ptr, i64 }

@_ZN5vcpkgL30loaded_localization_file_beginE = internal global ptr null, align 8
@_ZN5vcpkgL28loaded_localization_file_endE = internal global ptr null, align 8

; Function Attrs: mustprogress nounwind uwtable
define linkonce_odr dso_local void @_ZN5vcpkg10StringViewC2EPKcS2_(ptr noundef nonnull align 8 dereferenceable(16) %0, ptr noundef %1, ptr noundef %2) unnamed_addr #0 comdat align 2 {
  %4 = alloca ptr, align 8
  %5 = alloca ptr, align 8
  %6 = alloca ptr, align 8
  store ptr %0, ptr %4, align 8
  store ptr %1, ptr %5, align 8
  store ptr %2, ptr %6, align 8
  %7 = load ptr, ptr %4, align 8
  %8 = getelementptr inbounds %"struct.vcpkg::StringView", ptr %7, i32 0, i32 0
  %9 = load ptr, ptr %5, align 8
  store ptr %9, ptr %8, align 8
  %10 = getelementptr inbounds %"struct.vcpkg::StringView", ptr %7, i32 0, i32 1
  %11 = load ptr, ptr %6, align 8
  %12 = load ptr, ptr %5, align 8
  %13 = ptrtoint ptr %11 to i64
  %14 = ptrtoint ptr %12 to i64
  %15 = sub i64 %13, %14
  store i64 %15, ptr %10, align 8
  ret void
}

; Function Attrs: mustprogress nounwind uwtable
define dso_local { ptr, i64 } @_ZN5vcpkg3msg15get_loaded_fileEv() #0 {
  %1 = alloca %"struct.vcpkg::StringView", align 8
  %2 = load ptr, ptr @_ZN5vcpkgL30loaded_localization_file_beginE, align 8
  %3 = load ptr, ptr @_ZN5vcpkgL28loaded_localization_file_endE, align 8
  call void @_ZN5vcpkg10StringViewC2EPKcS2_(ptr noundef nonnull align 8 dereferenceable(16) %1, ptr noundef %2, ptr noundef %3) #8
  %4 = load { ptr, i64 }, ptr %1, align 8
  ret { ptr, i64 } %4
}