; Function Attrs: mustprogress nofree norecurse nosync nounwind willreturn memory(read, argmem: none, inaccessiblemem: none) uwtable
define dso_local { ptr, i64 } @_ZN5vcpkg3msg15get_loaded_fileEv() local_unnamed_addr #10 {
  %1 = load ptr, ptr @_ZN5vcpkgL30loaded_localization_file_beginE, align 8
  %2 = load ptr, ptr @_ZN5vcpkgL28loaded_localization_file_endE, align 8
  %3 = ptrtoint ptr %2 to i64
  %4 = ptrtoint ptr %1 to i64
  %5 = sub i64 %3, %4
  %.fca.0.insert = insertvalue { ptr, i64 } poison, ptr %1, 0
  %.fca.1.insert = insertvalue { ptr, i64 } %.fca.0.insert, i64 %5, 1
  ret { ptr, i64 } %.fca.1.insert
}